
LINK : warning L4021: no stack segment

 Start  Stop   Length Name                   Class
 00000H 0E8F0H 0E8F1H _TEXT                  CODE
 0E8F2H 0EECDH 005DCH _TEXT                  FAR_DATA
 0EECEH 0EECEH 00000H _TEXT_CONST            FAR_DATA
 0EECEH 0EECEH 00000H _TEXT_BSS              FAR_DATA
 0EECEH 0EECEH 00000H _DATA                  DATA
 0EED0H 0EEF5H 00026H c_common               BSS

 Origin   Group
 0000:0   DGROUP
 0E8F:0   _TEXT_GROUP

  Address         Publics by Name

 0000:1413       $$RETF
 0000:1415       $$RETN
 0000:0B14       $BEG_CIO
 0000:0C0C       $BEG_PDMA
 0000:08AA       $BEG_SCC
 0000:0BD1       $END_CIO
 0000:0D3F       $END_PDMA
 0000:0B14       $END_SCC
 0000:058A       $ILLEGAL
 0000:02FF       AHWINIT
 0000:0100       ASWINIT
 0000:10A8       DEB_CMD
 0000:05F9       FALSE_ISR
 0000:0B5F       ICIO0A
 0000:0B68       ICIO0B
 0000:0B71       ICIO1A
 0000:0B7A       ICIO1B
 0000:05B1       INT00
 0000:104C       INT01
 0000:1065       INT03
 0000:05B6       INT04
 0000:05BB       INT05
 0000:05C0       INT06
 0000:05C5       INT07
 0000:12D1       INT08
 0000:05CA       INT09
 0000:05CF       INT0A
 0000:05D4       INT0B
 0000:12F9       INT12
 0000:05E8       INT13
 0000:0654       INTINT0
 0000:05D9       INTINT1
 0000:05DE       INTINT2
 0000:05E3       INTINT3
 0000:076E       INTNMI
 0000:0B83       INTX21
 0000:0C0C       IPDMA_0
 0000:0C19       IPDMA_1
 0000:0C23       IPDMA_2
 0000:0C30       IPDMA_3
 0000:0C3A       IPDMA_4
 0000:0C47       IPDMA_5
 0000:0C51       IPDMA_6
 0000:0C5E       IPDMA_7
 0000:0C68       IPDMA_8
 0000:0C75       IPDMA_9
 0000:0C7F       IPDMA_A
 0000:0C8C       IPDMA_B
 0000:0C96       IPDMA_C
 0000:0CA3       IPDMA_D
 0000:0CAD       IPDMA_E
 0000:0CBA       IPDMA_F
 0000:08BC       ISCC0A
 0000:08DC       ISCC0A_EC
 0000:08D3       ISCC0A_RT
 0000:08C9       ISCC0A_TXR
 0000:08E6       ISCC0B
 0000:0906       ISCC0B_EC
 0000:08FD       ISCC0B_RT
 0000:08F3       ISCC0B_TXR
 0000:0910       ISCC1A
 0000:0930       ISCC1A_EC
 0000:0927       ISCC1A_RT
 0000:091D       ISCC1A_TXR
 0000:093A       ISCC1B
 0000:095B       ISCC1B_EC
 0000:0952       ISCC1B_RT
 0000:0948       ISCC1B_TXR
 0000:097F       ITXRDY
 0000:E6E6       IVT
 0000:246A       NOT_USED
 0000:05ED       NULL_ISR
 0000:0CC4       P_RXDMA
 0000:0D14       P_TXDMA
 0000:246C       SIGNAL
 0000:C1F4       _ACMDREG
 0000:25C7       _acmdvec
 0000:C038       _ACQUEUE
 0000:1321       _ADAPRESET
 0000:142F       _ADDRINC2
 0000:36D2       _add_rqe
 0000:9701       _add_to_arq
 0000:26CC       _adreset
 0000:DE28       _ad_cntl
 0000:DE48       _ad_diag
 0000:DEA8       _AD_QURY
 0000:DE68       _ad_sest
 0000:C070       _ARQUEUE
 0000:161D       _ASCII_FR_EP
 0000:1628       _ASCII_FR_OP
 0000:15ED       _ASCII_TO_EP
 0000:15F8       _ASCII_TO_OP
 0000:E2DF       _asc_tbl
 0000:68FA       _asy_decode
 0000:605E       _attach_destbuf
 0000:5FEE       _attach_srcbuf
 0000:8CEE       _autoans
 0000:888E       _autocal
 0000:DF1C       _A_BLC_LIST
 0000:E4FB       _BITRATE
 0000:E172       _BM_AREA
 0000:DF08       _Bm_Dma
 0000:06EC       _BM_DUMP
 0000:48F9       _bop_decode
 0000:5E56       _bsc_rsm
 0000:4D60       _bsc_tsm
 0000:5329       _bsc_xmit_frame
 0000:E51B       _BYTERATE
 0000:97E7       _call_establishment
 0000:9C34       _call_term
 0000:7705       _char_trace
 0000:7F3B       _chg_parm
 0000:216B       _CHKTST
 0000:DDF0       _CIOBASE
 0000:23C0       _CIOREGS
 0000:21B4       _CIOTST
 0000:3B0B       _cio_delta
 0000:E122       _cio_io_tab
 0000:13B7       _CLRTC
 0000:A377       _clr_x21_lsd
 0000:C840       _CMDBLK
 0000:2471       _cmdvec
 0000:7FFC       _copy_parms
 0000:6147       _cop_decode
 0000:233E       _CPUDMA
 0000:2302       _CPUREGS
 0000:230D       _CPUTMR
 0000:2196       _CPUTST
 0000:E2FB       _CRCTBL
 0000:2BA4       _c_serial_setup
 0000:2D68       _data_blaster
 0000:13C9       _DISABLE
 0000:E2DE       _DISABLES
 0000:6D6F       _disable_rx
 0000:23FA       _DMAREGS
 0000:2DB8       _dmatest
 0000:D8A5       _Dma_BM_Index
 0000:35A4       _DMA_COMPLETE
 0000:D8A0       _DMA_COUNT
 0000:D8AA       _DMA_ERR
 0000:D89C       _Dma_Oper
 0000:D8A6       _Dma_Port
 0000:D8A2       _Dma_Retries
 0000:D8AC       _DMA_TMP
 0000:D8A4       _Dma_Type
 0000:9EC8       _dte_clear_confirm
 0000:9F06       _dte_clear_request
 0000:E2ED       _ebc_tbl
 0000:C240       _edrr
 0000:C240       _EDRR_0
 0000:C280       _EDRR_1
 0000:C2C0       _EDRR_2
 0000:C300       _EDRR_3
 0000:13CF       _ENABLE
 0000:6CA8       _enable_rx
 0000:BF9E       _ERRSTS
 0000:D8BE       _ESTAT
 0000:D8BE       _ESTAT0
 0000:D8C6       _ESTAT1
 0000:D8CE       _ESTAT2
 0000:D8D6       _ESTAT3
 0000:1268       _EXITUSER
 0000:DD9E       _E_RXMASK
 0000:DDA2       _E_TXMASK
 0000:289B       _FE_cioregs
 0000:2806       _FE_cpudma
 0000:27A9       _FE_cpuregs
 0000:27CB       _FE_cputmr
 0000:28D4       _FE_dmaregs
 0000:265B       _FE_memtst
 0000:26B0       _FE_multi
 0000:286C       _FE_sccregs
 0000:2841       _FE_segreg
 0000:9408       _flush_p
 0000:3982       _free_cmdblk
 0000:DEE8       _fT
 0000:381A       _f_errsts
 0000:4172       _f_pcqwork
 0000:DE08       _f_portwork
 0000:3BD7       _f_prqwork
 0000:6DEF       _f_rxwork
 0000:2469       _F_TXPROC
 0000:764C       _f_txwork
 0000:1230       _GateUser
 0000:2234       _GETEID
 0000:221C       _GETIID
 0000:22D6       _GETVPD
 0000:401A       _get_modem_stats
 0000:6C93       _GET_RSR
 0000:2208       _GMSIZE
 0000:1417       _HALT
 0000:30B4       _HOST_COMMAND
 0000:147B       _HOST_INTR
 0000:1387       _IN08
 0000:1393       _IN16
 0000:14E3       _INITPDMA
 0000:43CB       _INIT_PCB
 0000:9072       _init_rcv
 0000:44AD       _init_scc
 0000:11A9       _INIT_SCHED
 0000:0295       _INTRESET
 0000:22C4       _INTWDT
 0000:2756       _io_read
 0000:2710       _io_write
 0000:BFC6       _i_sched
 0000:82ED       _leased
 0000:BFA6       _lev_vec
 0000:141C       _LOG2SEG
 0000:246D       _LOG_ERROR
 0000:E554       _LOST_INTR
 0000:608D       _make_rqe
 0000:8FAD       _manual
 0000:2FEE       _memtest
 0000:1450       _MEMVFY
 0000:3E0E       _mi_enable
 0000:3FA6       _modem_flags
 0000:1538       _NEXT_BCC
 0000:246B       _NULL_FN
 0000:C1F6       _NUM_CMD
 0000:139D       _OUT08
 0000:13AA       _OUT16
 0000:D440       _P0CMDQ
 0000:D520       _P0RSPQ
 0000:D478       _P1CMDQ
 0000:D5E4       _P1RSPQ
 0000:D4B0       _P2CMDQ
 0000:D6A8       _P2RSPQ
 0000:D4E8       _P3CMDQ
 0000:D76C       _P3RSPQ
 0000:E050       _patterns
 0000:D952       _pcb
 0000:BFA2       _PCQWORK
 0000:D8AE       _PCQ_TAB
 0000:DDC8       _PDMABASE
 0000:DDF8       _PDMA_CDT
 0000:E184       _PE_AREA
 0000:071D       _PE_DUMP
 0000:13E1       _port
 0000:13FB       _PORTBIT
 0000:D440       _port_cq
 0000:D520       _port_rq
 0000:22CD       _PRISWC
 0000:1262       _PROCSLEEP
 0000:BFA0       _PRQWORK
 0000:D8B6       _PRQ_TAB
 0000:E18A       _PTIMER0
 0000:E194       _PTIMER1
 0000:DE88       _PT_DIAG
 0000:E000       _p_io_tab
 0000:20C6       _QUEUE_INIT
 0000:1A73       _queue_insertb
 0000:1F56       _queue_insertl
 0000:1CD7       _queue_insertw
 0000:1B66       _queue_previewb
 0000:205B       _queue_previewl
 0000:1DCE       _queue_previeww
 0000:1A0C       _queue_readb
 0000:1EDF       _queue_readl
 0000:1C75       _queue_readw
 0000:195A       _queue_writeb
 0000:1E24       _QUEUE_WRITEL
 0000:1BC1       _queue_writew
 0000:2138       _RAMTST
 0000:EED2       _read
 0000:5FA0       _read_char
 0000:1522       _RECV_BUFFER
 0000:32F2       _recv_dma_work
 0000:D8A8       _Recv_Enable
 0000:D902       _ReRoute
 0000:DD9A       _RSMASK
 0000:DD62       _RXAUTO
 0000:BF96       _RXDMA
 0000:DD52       _RXSTAT
 0000:BF98       _RXWORK
 0000:C1FA       _rx_bsiz
 0000:E556       _RX_COUNT
 0000:E54C       _RX_DMA
 0000:E550       _RX_DMA_BYTES
 0000:D90A       _rx_dma_q
 0000:BFC8       _RX_FREE
 0000:C1F8       _RX_NBUF
 0000:C1FC       _RX_PARA
 0000:66E6       _rx_post_asy
 0000:55F4       _rx_post_bsc
 0000:4596       _rx_post_sdlc
 0000:630B       _rx_post_x21
 0000:E55E       _rx_size
 0000:DDE8       _SCCBASE
 0000:2381       _SCCREGS
 0000:21D7       _SCCTST
 0000:E16A       _SCC_CMDR_TAB
 0000:E66B       _scc_def_asy
 0000:E605       _scc_def_bi_a
 0000:E5E3       _scc_def_bi_e
 0000:E59F       _scc_def_sdlc
 0000:E68D       _scc_def_x21
 0000:39C7       _scc_delta
 0000:E09A       _scc_io_tab
 0000:E649       _scc_x21_bi_a
 0000:E627       _scc_x21_bi_e
 0000:E5C1       _scc_x21_sdlc
 0000:10BB       _scheduler
 0000:236B       _SEGREG
 0000:224C       _SETCIO
 0000:2288       _SETDMA
 0000:1493       _SETPDMA
 0000:226A       _SETSCC
 0000:6AFD       _settime
 0000:22A6       _SETTMR
 0000:7ABA       _set_asc
 0000:7961       _set_bsc
 0000:6BD0       _set_failsafe
 0000:15B5       _SET_FAST
 0000:77D4       _set_int_clk
 0000:7C1A       _set_parm
 0000:2908       _set_scc_diag
 0000:782D       _set_sdlc
 0000:6BB2       _set_timer
 0000:3D06       _sleep
 0000:D8FE       _SleepEn
 0000:3DCA       _sleep_disable
 0000:3D85       _sleep_enable
 0000:8E86       _smrtans
 0000:857B       _smrtmod
 0000:21FA       _SSTTST
 0000:D8DE       _STACKPTR
 0000:80CE       _startp
 0000:12A7       _STARTTIMER
 0000:9415       _start_ar
 0000:1569       _START_BM_DMA
 0000:6A0A       _start_duscc_timer
 0000:73E4       _start_frame
 0000:768D       _start_trace
 0000:9140       _stop
 0000:127F       _STOPTIMER
 0000:968A       _stop_ar
 0000:6AAC       _stop_duscc_timer
 0000:92E3       _stop_p
 0000:76E9       _stop_trace
 0000:8419       _switched
 0000:BFB6       _task_mask
 0000:6BEE       _TIMER_EXP
 0000:E19E       _TQ_FNC
 0000:E1A0       _TQ_RET
 0000:D906       _TraceOn
 0000:EED0       _trcptr
 0000:C440       _TRC_0
 0000:C540       _TRC_1
 0000:C640       _TRC_2
 0000:C740       _TRC_3
 0000:C340       _trc_ad
 0000:C440       _trc_p
 0000:DD96       _TRSMASK
 0000:DDBE       _TSCC_STYP
 0000:DDB6       _TSCC_SVAL
 0000:DDAE       _tscc_typ
 0000:DDA6       _TSCC_VAL
 0000:DD7E       _TXCCW
 0000:DD92       _txcmd
 0000:6F62       _txCommon
 0000:BF9A       _TXDMA
 0000:DD6E       _txflgt
 0000:DD8E       _TXFTYPE
 0000:DD76       _TXINC
 0000:DD86       _TXIOA
 0000:DD66       _TXLGT
 0000:DD5A       _TXSTAT
 0000:BF9C       _TXWORK
 0000:4086       _tx_abort
 0000:70C8       _tx_ack
 0000:C200       _TX_BSIZ
 0000:E53C       _TX_DMA
 0000:E540       _TX_DMA_BYTES
 0000:D830       _TX_DMA_Q
 0000:C000       _TX_FREE
 0000:DDC6       _TX_INT_EN
 0000:C1FE       _TX_NBUF
 0000:C202       _TX_PARA
 0000:6898       _tx_pre_asy
 0000:4AB6       _tx_pre_bsc
 0000:4832       _tx_pre_sdlc
 0000:64ED       _tx_pre_x21
 0000:E544       _TX_SHORT
 0000:E548       _TX_SHORT_BYTES
 0000:E192       _T_PORT0
 0000:E19C       _T_PORT1
 0000:DEC8       _US_DIAG
 0000:132F       _WAITBM
 0000:BF96       _WORK_Q
 0000:EEE4       _write
 0000:6025       _write_char
 0000:A159       _X21leased
 0000:972B       _X21switched
 0000:E1A6       _x21_ctl
 0000:656C       _x21_decode
 0000:9F3B       _x21_rcv_data
 0000:E1A2       _X21_SKIP
 0000:E1A4       _x21_Stat
 0000:14F6       _XMIT_BUFFER
 0000:34AB       _xmit_dma_work
 0000:150C       _XMIT_EXTENSION
 0000:7210       _xmit_frame
 0000:A3E5       _xmt_24_bits
 0000:A435       _xmt_24_start
 0000:246E       __acrtused
 0000:E8E6       __aNlshl
 0000:DF70       __LLC_LIST

  Address         Publics by Value

 0000:0100       ASWINIT
 0000:0295       _INTRESET
 0000:02FF       AHWINIT
 0000:058A       $ILLEGAL
 0000:05B1       INT00
 0000:05B6       INT04
 0000:05BB       INT05
 0000:05C0       INT06
 0000:05C5       INT07
 0000:05CA       INT09
 0000:05CF       INT0A
 0000:05D4       INT0B
 0000:05D9       INTINT1
 0000:05DE       INTINT2
 0000:05E3       INTINT3
 0000:05E8       INT13
 0000:05ED       NULL_ISR
 0000:05F9       FALSE_ISR
 0000:0654       INTINT0
 0000:06EC       _BM_DUMP
 0000:071D       _PE_DUMP
 0000:076E       INTNMI
 0000:08AA       $BEG_SCC
 0000:08BC       ISCC0A
 0000:08C9       ISCC0A_TXR
 0000:08D3       ISCC0A_RT
 0000:08DC       ISCC0A_EC
 0000:08E6       ISCC0B
 0000:08F3       ISCC0B_TXR
 0000:08FD       ISCC0B_RT
 0000:0906       ISCC0B_EC
 0000:0910       ISCC1A
 0000:091D       ISCC1A_TXR
 0000:0927       ISCC1A_RT
 0000:0930       ISCC1A_EC
 0000:093A       ISCC1B
 0000:0948       ISCC1B_TXR
 0000:0952       ISCC1B_RT
 0000:095B       ISCC1B_EC
 0000:097F       ITXRDY
 0000:0B14       $END_SCC
 0000:0B14       $BEG_CIO
 0000:0B5F       ICIO0A
 0000:0B68       ICIO0B
 0000:0B71       ICIO1A
 0000:0B7A       ICIO1B
 0000:0B83       INTX21
 0000:0BD1       $END_CIO
 0000:0C0C       IPDMA_0
 0000:0C0C       $BEG_PDMA
 0000:0C19       IPDMA_1
 0000:0C23       IPDMA_2
 0000:0C30       IPDMA_3
 0000:0C3A       IPDMA_4
 0000:0C47       IPDMA_5
 0000:0C51       IPDMA_6
 0000:0C5E       IPDMA_7
 0000:0C68       IPDMA_8
 0000:0C75       IPDMA_9
 0000:0C7F       IPDMA_A
 0000:0C8C       IPDMA_B
 0000:0C96       IPDMA_C
 0000:0CA3       IPDMA_D
 0000:0CAD       IPDMA_E
 0000:0CBA       IPDMA_F
 0000:0CC4       P_RXDMA
 0000:0D14       P_TXDMA
 0000:0D3F       $END_PDMA
 0000:104C       INT01
 0000:1065       INT03
 0000:10A8       DEB_CMD
 0000:10BB       _scheduler
 0000:11A9       _INIT_SCHED
 0000:1230       _GateUser
 0000:1262       _PROCSLEEP
 0000:1268       _EXITUSER
 0000:127F       _STOPTIMER
 0000:12A7       _STARTTIMER
 0000:12D1       INT08
 0000:12F9       INT12
 0000:1321       _ADAPRESET
 0000:132F       _WAITBM
 0000:1387       _IN08
 0000:1393       _IN16
 0000:139D       _OUT08
 0000:13AA       _OUT16
 0000:13B7       _CLRTC
 0000:13C9       _DISABLE
 0000:13CF       _ENABLE
 0000:13E1       _port
 0000:13FB       _PORTBIT
 0000:1413       $$RETF
 0000:1415       $$RETN
 0000:1417       _HALT
 0000:141C       _LOG2SEG
 0000:142F       _ADDRINC2
 0000:1450       _MEMVFY
 0000:147B       _HOST_INTR
 0000:1493       _SETPDMA
 0000:14E3       _INITPDMA
 0000:14F6       _XMIT_BUFFER
 0000:150C       _XMIT_EXTENSION
 0000:1522       _RECV_BUFFER
 0000:1538       _NEXT_BCC
 0000:1569       _START_BM_DMA
 0000:15B5       _SET_FAST
 0000:15ED       _ASCII_TO_EP
 0000:15F8       _ASCII_TO_OP
 0000:161D       _ASCII_FR_EP
 0000:1628       _ASCII_FR_OP
 0000:195A       _queue_writeb
 0000:1A0C       _queue_readb
 0000:1A73       _queue_insertb
 0000:1B66       _queue_previewb
 0000:1BC1       _queue_writew
 0000:1C75       _queue_readw
 0000:1CD7       _queue_insertw
 0000:1DCE       _queue_previeww
 0000:1E24       _QUEUE_WRITEL
 0000:1EDF       _queue_readl
 0000:1F56       _queue_insertl
 0000:205B       _queue_previewl
 0000:20C6       _QUEUE_INIT
 0000:2138       _RAMTST
 0000:216B       _CHKTST
 0000:2196       _CPUTST
 0000:21B4       _CIOTST
 0000:21D7       _SCCTST
 0000:21FA       _SSTTST
 0000:2208       _GMSIZE
 0000:221C       _GETIID
 0000:2234       _GETEID
 0000:224C       _SETCIO
 0000:226A       _SETSCC
 0000:2288       _SETDMA
 0000:22A6       _SETTMR
 0000:22C4       _INTWDT
 0000:22CD       _PRISWC
 0000:22D6       _GETVPD
 0000:2302       _CPUREGS
 0000:230D       _CPUTMR
 0000:233E       _CPUDMA
 0000:236B       _SEGREG
 0000:2381       _SCCREGS
 0000:23C0       _CIOREGS
 0000:23FA       _DMAREGS
 0000:2469       _F_TXPROC
 0000:246A       NOT_USED
 0000:246B       _NULL_FN
 0000:246C       SIGNAL
 0000:246D       _LOG_ERROR
 0000:246E       __acrtused
 0000:2471       _cmdvec
 0000:25C7       _acmdvec
 0000:265B       _FE_memtst
 0000:26B0       _FE_multi
 0000:26CC       _adreset
 0000:2710       _io_write
 0000:2756       _io_read
 0000:27A9       _FE_cpuregs
 0000:27CB       _FE_cputmr
 0000:2806       _FE_cpudma
 0000:2841       _FE_segreg
 0000:286C       _FE_sccregs
 0000:289B       _FE_cioregs
 0000:28D4       _FE_dmaregs
 0000:2908       _set_scc_diag
 0000:2BA4       _c_serial_setup
 0000:2D68       _data_blaster
 0000:2DB8       _dmatest
 0000:2FEE       _memtest
 0000:30B4       _HOST_COMMAND
 0000:32F2       _recv_dma_work
 0000:34AB       _xmit_dma_work
 0000:35A4       _DMA_COMPLETE
 0000:36D2       _add_rqe
 0000:381A       _f_errsts
 0000:3982       _free_cmdblk
 0000:39C7       _scc_delta
 0000:3B0B       _cio_delta
 0000:3BD7       _f_prqwork
 0000:3D06       _sleep
 0000:3D85       _sleep_enable
 0000:3DCA       _sleep_disable
 0000:3E0E       _mi_enable
 0000:3FA6       _modem_flags
 0000:401A       _get_modem_stats
 0000:4086       _tx_abort
 0000:4172       _f_pcqwork
 0000:43CB       _INIT_PCB
 0000:44AD       _init_scc
 0000:4596       _rx_post_sdlc
 0000:4832       _tx_pre_sdlc
 0000:48F9       _bop_decode
 0000:4AB6       _tx_pre_bsc
 0000:4D60       _bsc_tsm
 0000:5329       _bsc_xmit_frame
 0000:55F4       _rx_post_bsc
 0000:5E56       _bsc_rsm
 0000:5FA0       _read_char
 0000:5FEE       _attach_srcbuf
 0000:6025       _write_char
 0000:605E       _attach_destbuf
 0000:608D       _make_rqe
 0000:6147       _cop_decode
 0000:630B       _rx_post_x21
 0000:64ED       _tx_pre_x21
 0000:656C       _x21_decode
 0000:66E6       _rx_post_asy
 0000:6898       _tx_pre_asy
 0000:68FA       _asy_decode
 0000:6A0A       _start_duscc_timer
 0000:6AAC       _stop_duscc_timer
 0000:6AFD       _settime
 0000:6BB2       _set_timer
 0000:6BD0       _set_failsafe
 0000:6BEE       _TIMER_EXP
 0000:6C93       _GET_RSR
 0000:6CA8       _enable_rx
 0000:6D6F       _disable_rx
 0000:6DEF       _f_rxwork
 0000:6F62       _txCommon
 0000:70C8       _tx_ack
 0000:7210       _xmit_frame
 0000:73E4       _start_frame
 0000:764C       _f_txwork
 0000:768D       _start_trace
 0000:76E9       _stop_trace
 0000:7705       _char_trace
 0000:77D4       _set_int_clk
 0000:782D       _set_sdlc
 0000:7961       _set_bsc
 0000:7ABA       _set_asc
 0000:7C1A       _set_parm
 0000:7F3B       _chg_parm
 0000:7FFC       _copy_parms
 0000:80CE       _startp
 0000:82ED       _leased
 0000:8419       _switched
 0000:857B       _smrtmod
 0000:888E       _autocal
 0000:8CEE       _autoans
 0000:8E86       _smrtans
 0000:8FAD       _manual
 0000:9072       _init_rcv
 0000:9140       _stop
 0000:92E3       _stop_p
 0000:9408       _flush_p
 0000:9415       _start_ar
 0000:968A       _stop_ar
 0000:9701       _add_to_arq
 0000:972B       _X21switched
 0000:97E7       _call_establishment
 0000:9C34       _call_term
 0000:9EC8       _dte_clear_confirm
 0000:9F06       _dte_clear_request
 0000:9F3B       _x21_rcv_data
 0000:A159       _X21leased
 0000:A377       _clr_x21_lsd
 0000:A3E5       _xmt_24_bits
 0000:A435       _xmt_24_start
 0000:BF96       _WORK_Q
 0000:BF96       _RXDMA
 0000:BF98       _RXWORK
 0000:BF9A       _TXDMA
 0000:BF9C       _TXWORK
 0000:BF9E       _ERRSTS
 0000:BFA0       _PRQWORK
 0000:BFA2       _PCQWORK
 0000:BFA6       _lev_vec
 0000:BFB6       _task_mask
 0000:BFC6       _i_sched
 0000:BFC8       _RX_FREE
 0000:C000       _TX_FREE
 0000:C038       _ACQUEUE
 0000:C070       _ARQUEUE
 0000:C1F4       _ACMDREG
 0000:C1F6       _NUM_CMD
 0000:C1F8       _RX_NBUF
 0000:C1FA       _rx_bsiz
 0000:C1FC       _RX_PARA
 0000:C1FE       _TX_NBUF
 0000:C200       _TX_BSIZ
 0000:C202       _TX_PARA
 0000:C240       _EDRR_0
 0000:C240       _edrr
 0000:C280       _EDRR_1
 0000:C2C0       _EDRR_2
 0000:C300       _EDRR_3
 0000:C340       _trc_ad
 0000:C440       _TRC_0
 0000:C440       _trc_p
 0000:C540       _TRC_1
 0000:C640       _TRC_2
 0000:C740       _TRC_3
 0000:C840       _CMDBLK
 0000:D440       _port_cq
 0000:D440       _P0CMDQ
 0000:D478       _P1CMDQ
 0000:D4B0       _P2CMDQ
 0000:D4E8       _P3CMDQ
 0000:D520       _P0RSPQ
 0000:D520       _port_rq
 0000:D5E4       _P1RSPQ
 0000:D6A8       _P2RSPQ
 0000:D76C       _P3RSPQ
 0000:D830       _TX_DMA_Q
 0000:D89C       _Dma_Oper
 0000:D8A0       _DMA_COUNT
 0000:D8A2       _Dma_Retries
 0000:D8A4       _Dma_Type
 0000:D8A5       _Dma_BM_Index
 0000:D8A6       _Dma_Port
 0000:D8A8       _Recv_Enable
 0000:D8AA       _DMA_ERR
 0000:D8AC       _DMA_TMP
 0000:D8AE       _PCQ_TAB
 0000:D8B6       _PRQ_TAB
 0000:D8BE       _ESTAT0
 0000:D8BE       _ESTAT
 0000:D8C6       _ESTAT1
 0000:D8CE       _ESTAT2
 0000:D8D6       _ESTAT3
 0000:D8DE       _STACKPTR
 0000:D8FE       _SleepEn
 0000:D902       _ReRoute
 0000:D906       _TraceOn
 0000:D90A       _rx_dma_q
 0000:D952       _pcb
 0000:DD52       _RXSTAT
 0000:DD5A       _TXSTAT
 0000:DD62       _RXAUTO
 0000:DD66       _TXLGT
 0000:DD6E       _txflgt
 0000:DD76       _TXINC
 0000:DD7E       _TXCCW
 0000:DD86       _TXIOA
 0000:DD8E       _TXFTYPE
 0000:DD92       _txcmd
 0000:DD96       _TRSMASK
 0000:DD9A       _RSMASK
 0000:DD9E       _E_RXMASK
 0000:DDA2       _E_TXMASK
 0000:DDA6       _TSCC_VAL
 0000:DDAE       _tscc_typ
 0000:DDB6       _TSCC_SVAL
 0000:DDBE       _TSCC_STYP
 0000:DDC6       _TX_INT_EN
 0000:DDC8       _PDMABASE
 0000:DDE8       _SCCBASE
 0000:DDF0       _CIOBASE
 0000:DDF8       _PDMA_CDT
 0000:DE08       _f_portwork
 0000:DE28       _ad_cntl
 0000:DE48       _ad_diag
 0000:DE68       _ad_sest
 0000:DE88       _PT_DIAG
 0000:DEA8       _AD_QURY
 0000:DEC8       _US_DIAG
 0000:DEE8       _fT
 0000:DF08       _Bm_Dma
 0000:DF1C       _A_BLC_LIST
 0000:DF70       __LLC_LIST
 0000:E000       _p_io_tab
 0000:E050       _patterns
 0000:E09A       _scc_io_tab
 0000:E122       _cio_io_tab
 0000:E16A       _SCC_CMDR_TAB
 0000:E172       _BM_AREA
 0000:E184       _PE_AREA
 0000:E18A       _PTIMER0
 0000:E192       _T_PORT0
 0000:E194       _PTIMER1
 0000:E19C       _T_PORT1
 0000:E19E       _TQ_FNC
 0000:E1A0       _TQ_RET
 0000:E1A2       _X21_SKIP
 0000:E1A4       _x21_Stat
 0000:E1A6       _x21_ctl
 0000:E2DE       _DISABLES
 0000:E2DF       _asc_tbl
 0000:E2ED       _ebc_tbl
 0000:E2FB       _CRCTBL
 0000:E4FB       _BITRATE
 0000:E51B       _BYTERATE
 0000:E53C       _TX_DMA
 0000:E540       _TX_DMA_BYTES
 0000:E544       _TX_SHORT
 0000:E548       _TX_SHORT_BYTES
 0000:E54C       _RX_DMA
 0000:E550       _RX_DMA_BYTES
 0000:E554       _LOST_INTR
 0000:E556       _RX_COUNT
 0000:E55E       _rx_size
 0000:E59F       _scc_def_sdlc
 0000:E5C1       _scc_x21_sdlc
 0000:E5E3       _scc_def_bi_e
 0000:E605       _scc_def_bi_a
 0000:E627       _scc_x21_bi_e
 0000:E649       _scc_x21_bi_a
 0000:E66B       _scc_def_asy
 0000:E68D       _scc_def_x21
 0000:E6E6       IVT
 0000:E8E6       __aNlshl
 0000:EED0       _trcptr
 0000:EED2       _read
 0000:EEE4       _write

Program entry point at 0000:0100
